target datalayout = "e-m:e-p270:32:32-p271:32:32-p272:64:64-i64:64-i128:128-f80:128-n8:16:32:64-S128"
target triple = "x86_64-pc-linux-gnu"

%struct.WtvFile = type { ptr, i32, ptr, i32, i32, i64, i64 }

; Function Attrs: nounwind uwtable
define internal i64 @seek_by_sector(ptr noundef %0, i64 noundef %1, i64 noundef %2) #0 {
  %4 = alloca ptr, align 8
  %5 = alloca i64, align 8
  %6 = alloca i64, align 8
  store ptr %0, ptr %4, align 8, !tbaa !41
  store i64 %1, ptr %5, align 8, !tbaa !39
  store i64 %2, ptr %6, align 8, !tbaa !39
  %7 = load ptr, ptr %4, align 8, !tbaa !41
  %8 = load i64, ptr %5, align 8, !tbaa !39
  %9 = shl i64 %8, 12
  %10 = load i64, ptr %6, align 8, !tbaa !39
  %11 = add nsw i64 %9, %10
  %12 = call i64 @avio_seek(ptr noundef %7, i64 noundef %11, i32 noundef 0)
  ret i64 %12
}

; Function Attrs: nounwind uwtable
define internal i64 @wtvfile_seek(ptr noundef %0, i64 noundef %1, i32 noundef %2) #0 {
  %4 = alloca i64, align 8
  %5 = alloca ptr, align 8
  %6 = alloca i64, align 8
  %7 = alloca i32, align 4
  %8 = alloca ptr, align 8
  %9 = alloca ptr, align 8
  %10 = alloca i32, align 4
  store ptr %0, ptr %5, align 8, !tbaa !66
  store i64 %1, ptr %6, align 8, !tbaa !39
  store i32 %2, ptr %7, align 4, !tbaa !38
  call void @llvm.lifetime.start.p0(i64 8, ptr %8) #8
  %11 = load ptr, ptr %5, align 8, !tbaa !66
  store ptr %11, ptr %8, align 8, !tbaa !81
  call void @llvm.lifetime.start.p0(i64 8, ptr %9) #8
  %12 = load ptr, ptr %8, align 8, !tbaa !81
  %13 = getelementptr inbounds nuw %struct.WtvFile, ptr %12, i32 0, i32 0
  %14 = load ptr, ptr %13, align 8, !tbaa !91
  store ptr %14, ptr %9, align 8, !tbaa !41
  %15 = load i32, ptr %7, align 4, !tbaa !38
  %16 = icmp eq i32 %15, 65536
  br i1 %16, label %17, label %21

17:                                               ; preds = %3
  %18 = load ptr, ptr %8, align 8, !tbaa !81
  %19 = getelementptr inbounds nuw %struct.WtvFile, ptr %18, i32 0, i32 6
  %20 = load i64, ptr %19, align 8, !tbaa !89
  store i64 %20, ptr %4, align 8
  store i32 1, ptr %10, align 4
  br label %81

21:                                               ; preds = %3
  %22 = load i32, ptr %7, align 4, !tbaa !38
  %23 = icmp eq i32 %22, 1
  br i1 %23, label %24, label %30

24:                                               ; preds = %21
  %25 = load ptr, ptr %8, align 8, !tbaa !81
  %26 = getelementptr inbounds nuw %struct.WtvFile, ptr %25, i32 0, i32 5
  %27 = load i64, ptr %26, align 8, !tbaa !90
  %28 = load i64, ptr %6, align 8, !tbaa !39
  %29 = add nsw i64 %27, %28
  store i64 %29, ptr %6, align 8, !tbaa !39
  br label %38

30:                                               ; preds = %21
  %31 = load i32, ptr %7, align 4, !tbaa !38
  %32 = icmp eq i32 %31, 2
  br i1 %32, label %33, label %37

33:                                               ; preds = %30
  %34 = load ptr, ptr %8, align 8, !tbaa !81
  %35 = getelementptr inbounds nuw %struct.WtvFile, ptr %34, i32 0, i32 6
  %36 = load i64, ptr %35, align 8, !tbaa !89
  store i64 %36, ptr %6, align 8, !tbaa !39
  br label %37

37:                                               ; preds = %33, %30
  br label %38

38:                                               ; preds = %37, %24
  br label %39

39:                                               ; preds = %38
  %40 = load i64, ptr %6, align 8, !tbaa !39
  %41 = icmp slt i64 %40, 0
  br i1 %41, label %72, label %42

42:                                               ; preds = %39
  %43 = load i64, ptr %6, align 8, !tbaa !39
  %44 = load ptr, ptr %8, align 8, !tbaa !81
  %45 = getelementptr inbounds nuw %struct.WtvFile, ptr %44, i32 0, i32 6
  %46 = load i64, ptr %45, align 8, !tbaa !89
  %47 = icmp sge i64 %43, %46
  br i1 %47, label %72, label %48

48:                                               ; preds = %42
  %49 = load ptr, ptr %9, align 8, !tbaa !41
  %50 = load ptr, ptr %8, align 8, !tbaa !81
  %51 = getelementptr inbounds nuw %struct.WtvFile, ptr %50, i32 0, i32 2
  %52 = load ptr, ptr %51, align 8, !tbaa !84
  %53 = load i64, ptr %6, align 8, !tbaa !39
  %54 = load ptr, ptr %8, align 8, !tbaa !81
  %55 = getelementptr inbounds nuw %struct.WtvFile, ptr %54, i32 0, i32 1
  %56 = load i32, ptr %55, align 8, !tbaa !88
  %57 = zext i32 %56 to i64
  %58 = ashr i64 %53, %57
  %59 = getelementptr inbounds i32, ptr %52, i64 %58
  %60 = load i32, ptr %59, align 4, !tbaa !38
  %61 = zext i32 %60 to i64
  %62 = load i64, ptr %6, align 8, !tbaa !39
  %63 = load ptr, ptr %8, align 8, !tbaa !81
  %64 = getelementptr inbounds nuw %struct.WtvFile, ptr %63, i32 0, i32 1
  %65 = load i32, ptr %64, align 8, !tbaa !88
  %66 = shl i32 1, %65
  %67 = sub nsw i32 %66, 1
  %68 = sext i32 %67 to i64
  %69 = and i64 %62, %68
  %70 = call i64 @seek_by_sector(ptr noundef %49, i64 noundef %61, i64 noundef %69)
  %71 = icmp slt i64 %70, 0
  br label %72

72:                                               ; preds = %48, %42, %39
  %73 = phi i1 [ true, %42 ], [ true, %39 ], [ %71, %48 ]
  %74 = zext i1 %73 to i32
  %75 = load ptr, ptr %8, align 8, !tbaa !81
  %76 = getelementptr inbounds nuw %struct.WtvFile, ptr %75, i32 0, i32 4
  store i32 %74, ptr %76, align 4, !tbaa !93
  %77 = load i64, ptr %6, align 8, !tbaa !39
  %78 = load ptr, ptr %8, align 8, !tbaa !81
  %79 = getelementptr inbounds nuw %struct.WtvFile, ptr %78, i32 0, i32 5
  store i64 %77, ptr %79, align 8, !tbaa !90
  %80 = load i64, ptr %6, align 8, !tbaa !39
  store i64 %80, ptr %4, align 8
  store i32 1, ptr %10, align 4
  br label %81

81:                                               ; preds = %72, %17
  call void @llvm.lifetime.end.p0(i64 8, ptr %9) #8
  call void @llvm.lifetime.end.p0(i64 8, ptr %8) #8
  %82 = load i64, ptr %4, align 8
  ret i64 %82
}