; Function Attrs: nounwind uwtable
define internal i64 @wtvfile_seek(ptr noundef captures(none) %0, i64 noundef %1, i32 noundef %2) #1 {
  %4 = load ptr, ptr %0, align 8, !tbaa !71
  switch i32 %2, label %15 [
    i32 65536, label %5
    i32 1, label %8
    i32 2, label %12
  ]

5:                                                ; preds = %3
  %6 = getelementptr inbounds nuw i8, ptr %0, i64 40
  %7 = load i64, ptr %6, align 8, !tbaa !69
  br label %41

8:                                                ; preds = %3
  %9 = getelementptr inbounds nuw i8, ptr %0, i64 32
  %10 = load i64, ptr %9, align 8, !tbaa !70
  %11 = add nsw i64 %10, %1
  br label %15

12:                                               ; preds = %3
  %13 = getelementptr inbounds nuw i8, ptr %0, i64 40
  %14 = load i64, ptr %13, align 8, !tbaa !69
  br label %15

15:                                               ; preds = %3, %8, %12
  %.022 = phi i64 [ %11, %8 ], [ %14, %12 ], [ %1, %3 ]
  %16 = icmp slt i64 %.022, 0
  br i1 %16, label %37, label %17

17:                                               ; preds = %15
  %18 = getelementptr inbounds nuw i8, ptr %0, i64 40
  %19 = load i64, ptr %18, align 8, !tbaa !69
  %.not = icmp slt i64 %.022, %19
  br i1 %.not, label %20, label %37

20:                                               ; preds = %17
  %21 = getelementptr inbounds nuw i8, ptr %0, i64 16
  %22 = load ptr, ptr %21, align 8, !tbaa !62
  %23 = getelementptr inbounds nuw i8, ptr %0, i64 8
  %24 = load i32, ptr %23, align 8, !tbaa !66
  %25 = zext nneg i32 %24 to i64
  %26 = lshr i64 %.022, %25
  %27 = getelementptr inbounds nuw i32, ptr %22, i64 %26
  %28 = load i32, ptr %27, align 4, !tbaa !57
  %29 = zext i32 %28 to i64
  %notmask = shl nsw i32 -1, %24
  %30 = xor i32 %notmask, -1
  %31 = zext nneg i32 %30 to i64
  %32 = and i64 %.022, %31
  %33 = shl nuw nsw i64 %29, 12
  %34 = add nuw nsw i64 %33, %32
  %35 = tail call i64 @avio_seek(ptr noundef %4, i64 noundef %34, i32 noundef 0) #11
  %.lobit = lshr i64 %35, 63
  %36 = trunc nuw nsw i64 %.lobit to i32
  br label %37

37:                                               ; preds = %20, %17, %15
  %38 = phi i32 [ 1, %17 ], [ 1, %15 ], [ %36, %20 ]
  %39 = getelementptr inbounds nuw i8, ptr %0, i64 28
  store i32 %38, ptr %39, align 4, !tbaa !78
  %40 = getelementptr inbounds nuw i8, ptr %0, i64 32
  store i64 %.022, ptr %40, align 8, !tbaa !70
  br label %41

41:                                               ; preds = %37, %5
  %.0 = phi i64 [ %7, %5 ], [ %.022, %37 ]
  ret i64 %.0
}